target datalayout = "e-m:e-p270:32:32-p271:32:32-p272:64:64-i64:64-i128:128-f80:128-n8:16:32:64-S128"
target triple = "x86_64-unknown-linux-gnu"

; Function Attrs: nounwind uwtable
define internal i32 @prof_sys_thread_name_read_impl(ptr noundef %buf, i64 noundef %limit) #0 {
entry:
  %buf.addr = alloca ptr, align 8
  %limit.addr = alloca i64, align 8
  store ptr %buf, ptr %buf.addr, align 8
  store i64 %limit, ptr %limit.addr, align 8
  %call = call i64 @pthread_self() #7
  %0 = load ptr, ptr %buf.addr, align 8
  %1 = load i64, ptr %limit.addr, align 8
  %call1 = call i32 @pthread_getname_np(i64 noundef %call, ptr noundef %0, i64 noundef %1) #8
  ret i32 %call1
}

; Function Attrs: nounwind uwtable
define hidden void @prof_sys_thread_name_fetch(ptr noundef %tsd) #0 {
entry:
  %tsd.addr = alloca ptr, align 8
  %buf = alloca [16 x i8], align 16
  store ptr %tsd, ptr %tsd.addr, align 8
  %arraydecay = getelementptr inbounds [16 x i8], ptr %buf, i64 0, i64 0
  %call = call i32 @prof_sys_thread_name_read_impl(ptr noundef %arraydecay, i64 noundef 16)
  %tobool = icmp ne i32 %call, 0
  br i1 %tobool, label %if.end, label %if.then

if.then:                                          ; preds = %entry
  %0 = load ptr, ptr %tsd.addr, align 8
  %arraydecay1 = getelementptr inbounds [16 x i8], ptr %buf, i64 0, i64 0
  %call2 = call i32 @prof_thread_name_set_impl(ptr noundef %0, ptr noundef %arraydecay1)
  br label %if.end

if.end:                                           ; preds = %if.then, %entry
  ret void
}