; Function Attrs: nounwind uwtable
define hidden void @prof_sys_thread_name_fetch(ptr noundef %tsd) local_unnamed_addr #1 {
entry:
  %buf = alloca [16 x i8], align 16
  %call.i = tail call i64 @pthread_self() #9
  %call1.i = call i32 @pthread_getname_np(i64 noundef %call.i, ptr noundef nonnull %buf, i64 noundef 16) #8
  %tobool.not = icmp eq i32 %call1.i, 0
  br i1 %tobool.not, label %if.then, label %if.end

if.then:                                          ; preds = %entry
  %call2 = call i32 @prof_thread_name_set_impl(ptr noundef %tsd, ptr noundef nonnull %buf) #8
  br label %if.end

if.end:                                           ; preds = %if.then, %entry
  ret void
}